target datalayout = "e-m:e-p270:32:32-p271:32:32-p272:64:64-i64:64-i128:128-f80:128-n8:16:32:64-S128"
target triple = "x86_64-unknown-linux-gnu"

%struct.GeoHashBits = type { i64, i8 }
%struct.GeoShape = type { i32, [2 x double], double, [4 x double], %union.anon }
%union.anon = type { %struct.anon }
%struct.anon = type { double, double }

; Function Attrs: nounwind uwtable
define dso_local i32 @decodeGeohash(double noundef %bits, ptr noundef %xy) #0 {
entry:
  %bits.addr = alloca double, align 8
  %xy.addr = alloca ptr, align 8
  %hash = alloca %struct.GeoHashBits, align 8
  store double %bits, ptr %bits.addr, align 8
  store ptr %xy, ptr %xy.addr, align 8
  %bits1 = getelementptr inbounds %struct.GeoHashBits, ptr %hash, i32 0, i32 0
  %0 = load double, ptr %bits.addr, align 8
  %conv = fptoui double %0 to i64
  store i64 %conv, ptr %bits1, align 8
  %step = getelementptr inbounds %struct.GeoHashBits, ptr %hash, i32 0, i32 1
  store i8 26, ptr %step, align 8
  %1 = load ptr, ptr %xy.addr, align 8
  %2 = getelementptr inbounds { i64, i8 }, ptr %hash, i32 0, i32 0
  %3 = load i64, ptr %2, align 8
  %4 = getelementptr inbounds { i64, i8 }, ptr %hash, i32 0, i32 1
  %5 = load i8, ptr %4, align 8
  %call = call i32 @geohashDecodeToLongLatWGS84(i64 %3, i8 %5, ptr noundef %1)
  ret i32 %call
}

; Function Attrs: nounwind uwtable
define dso_local i32 @geoWithinShape(ptr noundef %shape, double noundef %score, ptr noundef %xy, ptr noundef %distance) #0 {
entry:
  %retval = alloca i32, align 4
  %shape.addr = alloca ptr, align 8
  %score.addr = alloca double, align 8
  %xy.addr = alloca ptr, align 8
  %distance.addr = alloca ptr, align 8
  store ptr %shape, ptr %shape.addr, align 8
  store double %score, ptr %score.addr, align 8
  store ptr %xy, ptr %xy.addr, align 8
  store ptr %distance, ptr %distance.addr, align 8
  %0 = load double, ptr %score.addr, align 8
  %1 = load ptr, ptr %xy.addr, align 8
  %call = call i32 @decodeGeohash(double noundef %0, ptr noundef %1)
  %tobool = icmp ne i32 %call, 0
  br i1 %tobool, label %if.end, label %if.then

if.then:                                          ; preds = %entry
  store i32 -1, ptr %retval, align 4
  br label %return

if.end:                                           ; preds = %entry
  %2 = load ptr, ptr %shape.addr, align 8
  %type = getelementptr inbounds %struct.GeoShape, ptr %2, i32 0, i32 0
  %3 = load i32, ptr %type, align 8
  %cmp = icmp eq i32 %3, 1
  br i1 %cmp, label %if.then1, label %if.else

if.then1:                                         ; preds = %if.end
  %4 = load ptr, ptr %shape.addr, align 8
  %xy2 = getelementptr inbounds %struct.GeoShape, ptr %4, i32 0, i32 1
  %arrayidx = getelementptr inbounds [2 x double], ptr %xy2, i64 0, i64 0
  %5 = load double, ptr %arrayidx, align 8
  %6 = load ptr, ptr %shape.addr, align 8
  %xy3 = getelementptr inbounds %struct.GeoShape, ptr %6, i32 0, i32 1
  %arrayidx4 = getelementptr inbounds [2 x double], ptr %xy3, i64 0, i64 1
  %7 = load double, ptr %arrayidx4, align 8
  %8 = load ptr, ptr %xy.addr, align 8
  %arrayidx5 = getelementptr inbounds double, ptr %8, i64 0
  %9 = load double, ptr %arrayidx5, align 8
  %10 = load ptr, ptr %xy.addr, align 8
  %arrayidx6 = getelementptr inbounds double, ptr %10, i64 1
  %11 = load double, ptr %arrayidx6, align 8
  %12 = load ptr, ptr %shape.addr, align 8
  %t = getelementptr inbounds %struct.GeoShape, ptr %12, i32 0, i32 4
  %13 = load double, ptr %t, align 8
  %14 = load ptr, ptr %shape.addr, align 8
  %conversion = getelementptr inbounds %struct.GeoShape, ptr %14, i32 0, i32 2
  %15 = load double, ptr %conversion, align 8
  %mul = fmul double %13, %15
  %16 = load ptr, ptr %distance.addr, align 8
  %call7 = call i32 @geohashGetDistanceIfInRadiusWGS84(double noundef %5, double noundef %7, double noundef %9, double noundef %11, double noundef %mul, ptr noundef %16)
  %tobool8 = icmp ne i32 %call7, 0
  br i1 %tobool8, label %if.end10, label %if.then9

if.then9:                                         ; preds = %if.then1
  store i32 -1, ptr %retval, align 4
  br label %return

if.end10:                                         ; preds = %if.then1
  br label %if.end31

if.else:                                          ; preds = %if.end
  %17 = load ptr, ptr %shape.addr, align 8
  %type11 = getelementptr inbounds %struct.GeoShape, ptr %17, i32 0, i32 0
  %18 = load i32, ptr %type11, align 8
  %cmp12 = icmp eq i32 %18, 2
  br i1 %cmp12, label %if.then13, label %if.end30

if.then13:                                        ; preds = %if.else
  %19 = load ptr, ptr %shape.addr, align 8
  %t14 = getelementptr inbounds %struct.GeoShape, ptr %19, i32 0, i32 4
  %width = getelementptr inbounds %struct.anon, ptr %t14, i32 0, i32 1
  %20 = load double, ptr %width, align 8
  %21 = load ptr, ptr %shape.addr, align 8
  %conversion15 = getelementptr inbounds %struct.GeoShape, ptr %21, i32 0, i32 2
  %22 = load double, ptr %conversion15, align 8
  %mul16 = fmul double %20, %22
  %23 = load ptr, ptr %shape.addr, align 8
  %t17 = getelementptr inbounds %struct.GeoShape, ptr %23, i32 0, i32 4
  %height = getelementptr inbounds %struct.anon, ptr %t17, i32 0, i32 0
  %24 = load double, ptr %height, align 8
  %25 = load ptr, ptr %shape.addr, align 8
  %conversion18 = getelementptr inbounds %struct.GeoShape, ptr %25, i32 0, i32 2
  %26 = load double, ptr %conversion18, align 8
  %mul19 = fmul double %24, %26
  %27 = load ptr, ptr %shape.addr, align 8
  %xy20 = getelementptr inbounds %struct.GeoShape, ptr %27, i32 0, i32 1
  %arrayidx21 = getelementptr inbounds [2 x double], ptr %xy20, i64 0, i64 0
  %28 = load double, ptr %arrayidx21, align 8
  %29 = load ptr, ptr %shape.addr, align 8
  %xy22 = getelementptr inbounds %struct.GeoShape, ptr %29, i32 0, i32 1
  %arrayidx23 = getelementptr inbounds [2 x double], ptr %xy22, i64 0, i64 1
  %30 = load double, ptr %arrayidx23, align 8
  %31 = load ptr, ptr %xy.addr, align 8
  %arrayidx24 = getelementptr inbounds double, ptr %31, i64 0
  %32 = load double, ptr %arrayidx24, align 8
  %33 = load ptr, ptr %xy.addr, align 8
  %arrayidx25 = getelementptr inbounds double, ptr %33, i64 1
  %34 = load double, ptr %arrayidx25, align 8
  %35 = load ptr, ptr %distance.addr, align 8
  %call26 = call i32 @geohashGetDistanceIfInRectangle(double noundef %mul16, double noundef %mul19, double noundef %28, double noundef %30, double noundef %32, double noundef %34, ptr noundef %35)
  %tobool27 = icmp ne i32 %call26, 0
  br i1 %tobool27, label %if.end29, label %if.then28

if.then28:                                        ; preds = %if.then13
  store i32 -1, ptr %retval, align 4
  br label %return

if.end29:                                         ; preds = %if.then13
  br label %if.end30

if.end30:                                         ; preds = %if.end29, %if.else
  br label %if.end31

if.end31:                                         ; preds = %if.end30, %if.end10
  store i32 0, ptr %retval, align 4
  br label %return

return:                                           ; preds = %if.end31, %if.then28, %if.then9, %if.then
  %36 = load i32, ptr %retval, align 4
  ret i32 %36
}