; Function Attrs: nounwind uwtable
define dso_local noundef i32 @geoWithinShape(ptr nocapture noundef readonly %shape, double noundef %score, ptr noundef %xy, ptr noundef %distance) local_unnamed_addr #0 {
entry:
  %conv.i = fptoui double %score to i64
  %call.i = tail call i32 @geohashDecodeToLongLatWGS84(i64 %conv.i, i8 26, ptr noundef %xy) #14
  %tobool.not = icmp eq i32 %call.i, 0
  br i1 %tobool.not, label %return, label %if.end

if.end:                                           ; preds = %entry
  %0 = load i32, ptr %shape, align 8
  switch i32 %0, label %if.end31 [
    i32 1, label %if.then1
    i32 2, label %if.then13
  ]

if.then1:                                         ; preds = %if.end
  %xy2 = getelementptr inbounds i8, ptr %shape, i64 8
  %1 = load double, ptr %xy2, align 8
  %arrayidx4 = getelementptr inbounds i8, ptr %shape, i64 16
  %2 = load double, ptr %arrayidx4, align 8
  %3 = load double, ptr %xy, align 8
  %arrayidx6 = getelementptr inbounds i8, ptr %xy, i64 8
  %4 = load double, ptr %arrayidx6, align 8
  %t = getelementptr inbounds i8, ptr %shape, i64 64
  %5 = load double, ptr %t, align 8
  %conversion = getelementptr inbounds i8, ptr %shape, i64 24
  %6 = load double, ptr %conversion, align 8
  %mul = fmul double %5, %6
  %call7 = tail call i32 @geohashGetDistanceIfInRadiusWGS84(double noundef %1, double noundef %2, double noundef %3, double noundef %4, double noundef %mul, ptr noundef %distance) #14
  %tobool8.not = icmp eq i32 %call7, 0
  br i1 %tobool8.not, label %return, label %if.end31

if.then13:                                        ; preds = %if.end
  %t14 = getelementptr inbounds i8, ptr %shape, i64 64
  %width = getelementptr inbounds i8, ptr %shape, i64 72
  %7 = load double, ptr %width, align 8
  %conversion15 = getelementptr inbounds i8, ptr %shape, i64 24
  %8 = load double, ptr %conversion15, align 8
  %mul16 = fmul double %7, %8
  %9 = load double, ptr %t14, align 8
  %mul19 = fmul double %8, %9
  %xy20 = getelementptr inbounds i8, ptr %shape, i64 8
  %10 = load double, ptr %xy20, align 8
  %arrayidx23 = getelementptr inbounds i8, ptr %shape, i64 16
  %11 = load double, ptr %arrayidx23, align 8
  %12 = load double, ptr %xy, align 8
  %arrayidx25 = getelementptr inbounds i8, ptr %xy, i64 8
  %13 = load double, ptr %arrayidx25, align 8
  %call26 = tail call i32 @geohashGetDistanceIfInRectangle(double noundef %mul16, double noundef %mul19, double noundef %10, double noundef %11, double noundef %12, double noundef %13, ptr noundef %distance) #14
  %tobool27.not = icmp eq i32 %call26, 0
  br i1 %tobool27.not, label %return, label %if.end31

if.end31:                                         ; preds = %if.end, %if.then13, %if.then1
  br label %return

return:                                           ; preds = %if.then13, %if.then1, %entry, %if.end31
  %retval.0 = phi i32 [ 0, %if.end31 ], [ -1, %entry ], [ -1, %if.then1 ], [ -1, %if.then13 ]
  ret i32 %retval.0
}